target datalayout = "e-m:e-p270:32:32-p271:32:32-p272:64:64-i64:64-i128:128-f80:128-n8:16:32:64-S128"
target triple = "x86_64-pc-linux-gnu"

%struct.opj_codec_private = type { %union.anon, ptr, %struct.opj_event_mgr, i32, ptr, ptr, ptr, ptr }
%union.anon = type { %struct.opj_decompression }
%struct.opj_decompression = type { ptr, ptr, ptr, ptr, ptr, ptr, ptr, ptr, ptr, ptr, ptr, ptr }
%struct.opj_event_mgr = type { ptr, ptr, ptr, ptr, ptr, ptr }
%struct.opj_compression = type { ptr, ptr, ptr, ptr, ptr, ptr, ptr }

; Function Attrs: nounwind uwtable
define hidden void @opj_destroy_codec(ptr noundef %0) #0 {
  %2 = alloca ptr, align 8
  %3 = alloca ptr, align 8
  store ptr %0, ptr %2, align 8, !tbaa !3
  %4 = load ptr, ptr %2, align 8, !tbaa !3
  %5 = icmp ne ptr %4, null
  br i1 %5, label %6, label %32

6:                                                ; preds = %1
  call void @llvm.lifetime.start.p0(i64 8, ptr %3) #5
  %7 = load ptr, ptr %2, align 8, !tbaa !3
  store ptr %7, ptr %3, align 8, !tbaa !9
  %8 = load ptr, ptr %3, align 8, !tbaa !9
  %9 = getelementptr inbounds nuw %struct.opj_codec_private, ptr %8, i32 0, i32 3
  %10 = load i32, ptr %9, align 8, !tbaa !21
  %11 = icmp ne i32 %10, 0
  br i1 %11, label %12, label %20

12:                                               ; preds = %6
  %13 = load ptr, ptr %3, align 8, !tbaa !9
  %14 = getelementptr inbounds nuw %struct.opj_codec_private, ptr %13, i32 0, i32 0
  %15 = getelementptr inbounds nuw %struct.opj_decompression, ptr %14, i32 0, i32 5
  %16 = load ptr, ptr %15, align 8, !tbaa !25
  %17 = load ptr, ptr %3, align 8, !tbaa !9
  %18 = getelementptr inbounds nuw %struct.opj_codec_private, ptr %17, i32 0, i32 1
  %19 = load ptr, ptr %18, align 8, !tbaa !27
  call void %16(ptr noundef %19)
  br label %28

20:                                               ; preds = %6
  %21 = load ptr, ptr %3, align 8, !tbaa !9
  %22 = getelementptr inbounds nuw %struct.opj_codec_private, ptr %21, i32 0, i32 0
  %23 = getelementptr inbounds nuw %struct.opj_compression, ptr %22, i32 0, i32 4
  %24 = load ptr, ptr %23, align 8, !tbaa !25
  %25 = load ptr, ptr %3, align 8, !tbaa !9
  %26 = getelementptr inbounds nuw %struct.opj_codec_private, ptr %25, i32 0, i32 1
  %27 = load ptr, ptr %26, align 8, !tbaa !27
  call void %24(ptr noundef %27)
  br label %28

28:                                               ; preds = %20, %12
  %29 = load ptr, ptr %3, align 8, !tbaa !9
  %30 = getelementptr inbounds nuw %struct.opj_codec_private, ptr %29, i32 0, i32 1
  store ptr null, ptr %30, align 8, !tbaa !27
  %31 = load ptr, ptr %3, align 8, !tbaa !9
  call void @opj_free(ptr noundef %31)
  call void @llvm.lifetime.end.p0(i64 8, ptr %3) #5
  br label %32

32:                                               ; preds = %28, %1
  ret void
}