; Function Attrs: nounwind uwtable
define hidden void @opj_destroy_codec(ptr noundef %0) local_unnamed_addr #2 {
  %.not = icmp eq ptr %0, null
  br i1 %.not, label %10, label %2

2:                                                ; preds = %1
  %3 = getelementptr inbounds nuw i8, ptr %0, i64 152
  %4 = load i32, ptr %3, align 8, !tbaa !15
  %.not9 = icmp eq i32 %4, 0
  %5 = getelementptr inbounds nuw i8, ptr %0, i64 96
  %6 = load ptr, ptr %5, align 8, !tbaa !21
  %. = select i1 %.not9, i64 32, i64 40
  %7 = getelementptr inbounds nuw i8, ptr %0, i64 %.
  %8 = load ptr, ptr %7, align 8, !tbaa !19
  tail call void %8(ptr noundef %6) #8
  %9 = getelementptr inbounds nuw i8, ptr %0, i64 96
  store ptr null, ptr %9, align 8, !tbaa !21
  tail call void @opj_free(ptr noundef nonnull %0) #8
  br label %10

10:                                               ; preds = %2, %1
  ret void
}